Certificate:
    Data:
        Version: 3 (0x2)
        Serial Number:
            fe:08:49:2e:7d:26:f9:af
        Signature Algorithm: sha1WithRSAEncryption
        Issuer: C=US, ST=Missouri, O=Siri Proxy, CN=SiriBrazilDev
        Validity
            Not Before: Jan  8 03:27:31 2012 GMT
            Not After : Jan  7 03:27:31 2015 GMT
        Subject: C=US, ST=Missouri, O=Siri Proxy, CN=SiriBrazilDev
        Subject Public Key Info:
            Public Key Algorithm: rsaEncryption
            RSA Public Key: (1024 bit)
                Modulus (1024 bit):
                    00:98:bf:dd:e8:94:90:b9:c9:d5:fe:53:62:54:2a:
                    52:2b:64:c2:da:85:34:30:64:0a:85:67:d2:93:c0:
                    eb:58:ff:d9:9d:c7:c5:3c:08:c3:7a:ab:69:c5:e6:
                    10:43:4e:66:2c:5f:1a:81:00:77:b8:29:f4:ff:46:
                    ff:25:e2:45:9d:ea:9c:a7:ec:fd:4f:5b:98:ce:ec:
                    10:bd:ef:ac:cd:0d:68:82:78:9a:e7:dc:4c:96:d8:
                    c8:e3:20:85:26:79:6c:19:a3:a3:64:2a:88:d9:07:
                    93:3a:bf:84:7a:64:84:6d:99:35:75:89:4a:39:1d:
                    f0:74:36:63:1f:ab:51:b5:a3
                Exponent: 65537 (0x10001)
        X509v3 extensions:
            X509v3 Subject Key Identifier: 
                07:8A:AF:44:3A:4B:74:3B:48:1A:07:28:19:D4:AE:14:18:83:2F:3A
            X509v3 Authority Key Identifier: 
                keyid:07:8A:AF:44:3A:4B:74:3B:48:1A:07:28:19:D4:AE:14:18:83:2F:3A

            X509v3 Basic Constraints: 
                CA:TRUE
    Signature Algorithm: sha1WithRSAEncryption
        82:d5:9f:cf:44:e7:2b:0f:81:71:7e:48:b6:bb:44:4e:78:d2:
        17:00:02:fe:99:55:b7:89:38:57:7c:27:d6:a7:33:d1:71:f9:
        3d:3c:69:eb:5c:a4:33:73:5c:a4:18:4a:99:4c:f6:8f:a5:5d:
        66:7a:ce:36:a4:41:f8:d2:fe:1b:20:ae:01:15:ce:6e:dc:70:
        3d:30:a2:da:f3:ec:90:e3:69:61:46:dc:2f:21:df:a8:cd:0a:
        ef:32:0f:5a:44:bd:61:5f:c5:eb:0e:21:d5:25:4c:e5:2d:61:
        94:6d:b5:a3:da:80:b7:5a:04:e3:b3:53:63:8d:0b:d6:8f:cd:
        24:2a
-----BEGIN CERTIFICATE-----
MIICaDCCAdGgAwIBAgIJAP4ISS59JvmvMA0GCSqGSIb3DQEBBQUAME0xCzAJBgNV
BAYTAlVTMREwDwYDVQQIDAhNaXNzb3VyaTETMBEGA1UECgwKU2lyaSBQcm94eTEW
MBQGA1UEAwwNU2lyaUJyYXppbERldjAeFw0xMjAxMDgwMzI3MzFaFw0xNTAxMDcw
MzI3MzFaME0xCzAJBgNVBAYTAlVTMREwDwYDVQQIDAhNaXNzb3VyaTETMBEGA1UE
CgwKU2lyaSBQcm94eTEWMBQGA1UEAwwNU2lyaUJyYXppbERldjCBnzANBgkqhkiG
9w0BAQEFAAOBjQAwgYkCgYEAmL/d6JSQucnV/lNiVCpSK2TC2oU0MGQKhWfSk8Dr
WP/ZncfFPAjDeqtpxeYQQ05mLF8agQB3uCn0/0b/JeJFneqcp+z9T1uYzuwQve+s
zQ1ognia59xMltjI4yCFJnlsGaOjZCqI2QeTOr+EemSEbZk1dYlKOR3wdDZjH6tR
taMCAwEAAaNQME4wHQYDVR0OBBYEFAeKr0Q6S3Q7SBoHKBnUrhQYgy86MB8GA1Ud
IwQYMBaAFAeKr0Q6S3Q7SBoHKBnUrhQYgy86MAwGA1UdEwQFMAMBAf8wDQYJKoZI
hvcNAQEFBQADgYEAgtWfz0TnKw+BcX5ItrtETnjSFwAC/plVt4k4V3wn1qcz0XH5
PTxp61ykM3NcpBhKmUz2j6VdZnrONqRB+NL+GyCuARXObtxwPTCi2vPskONpYUbc
LyHfqM0K7zIPWkS9YV/F6w4h1SVM5S1hlG21o9qAt1oE47NTY40L1o/NJCo=
-----END CERTIFICATE-----
