Certificate:
    Data:
        Version: 3 (0x2)
        Serial Number:
            fe:08:49:2e:7d:26:f9:b0
        Signature Algorithm: sha1WithRSAEncryption
        Issuer: C=US, ST=Missouri, O=Siri Proxy, CN=SiriBrazilDev
        Validity
            Not Before: Jan  8 03:27:31 2012 GMT
            Not After : Jan  7 03:27:31 2013 GMT
        Subject: C=US, ST=Missouri, O=Siri Proxy, CN=siribrazil.dev
        Subject Public Key Info:
            Public Key Algorithm: rsaEncryption
            RSA Public Key: (1024 bit)
                Modulus (1024 bit):
                    00:c8:68:6f:99:bb:fd:5d:48:5d:80:73:50:c1:9c:
                    eb:33:e1:71:be:13:c4:c3:4f:b9:4c:9a:b7:dc:a6:
                    1a:f5:ec:69:5a:27:a8:47:56:3a:7d:9c:fd:e9:e7:
                    0d:df:bb:1f:bd:2c:92:d4:72:fe:bf:cf:c9:4a:23:
                    50:89:4a:49:55:32:86:59:71:11:9b:b5:ff:8c:0e:
                    3c:85:45:29:6e:c4:04:65:d7:79:f5:40:1c:bd:a6:
                    84:b7:9e:df:13:29:f2:89:41:f9:e5:00:10:b2:37:
                    c1:36:25:5f:39:79:aa:d9:eb:59:6f:5a:27:61:45:
                    71:71:11:b9:86:1f:30:c4:97
                Exponent: 65537 (0x10001)
        X509v3 extensions:
            X509v3 Basic Constraints: 
                CA:FALSE
            Netscape Comment: 
                OpenSSL Generated Certificate
            X509v3 Subject Key Identifier: 
                2C:5D:5C:20:D6:A7:3F:A8:D4:C6:95:64:FF:B6:1D:B9:F6:D4:C2:8D
            X509v3 Authority Key Identifier: 
                keyid:07:8A:AF:44:3A:4B:74:3B:48:1A:07:28:19:D4:AE:14:18:83:2F:3A

    Signature Algorithm: sha1WithRSAEncryption
        0c:01:b0:e4:02:72:5b:d3:99:ed:41:f8:e7:9f:b3:48:c1:cd:
        fc:34:c9:77:53:fa:c4:80:f1:8f:a3:7d:70:67:54:1b:f7:17:
        f9:3a:88:4c:df:16:07:f3:c5:78:84:95:9c:78:0b:cf:91:35:
        31:f3:ba:e5:12:1d:5a:11:46:5e:cb:f5:6e:af:4d:fc:77:50:
        ed:d8:ed:d1:5c:12:46:51:97:6a:c7:e0:92:43:de:8c:0a:8a:
        21:d7:9b:99:c8:71:1b:5a:ad:08:4e:d9:4b:21:c2:72:90:8b:
        2f:26:b5:67:e3:5c:b8:8a:ee:75:44:eb:9b:c5:7a:64:ae:83:
        ec:cf
-----BEGIN CERTIFICATE-----
MIIClDCCAf2gAwIBAgIJAP4ISS59JvmwMA0GCSqGSIb3DQEBBQUAME0xCzAJBgNV
BAYTAlVTMREwDwYDVQQIDAhNaXNzb3VyaTETMBEGA1UECgwKU2lyaSBQcm94eTEW
MBQGA1UEAwwNU2lyaUJyYXppbERldjAeFw0xMjAxMDgwMzI3MzFaFw0xMzAxMDcw
MzI3MzFaME4xCzAJBgNVBAYTAlVTMREwDwYDVQQIDAhNaXNzb3VyaTETMBEGA1UE
CgwKU2lyaSBQcm94eTEXMBUGA1UEAwwOc2lyaWJyYXppbC5kZXYwgZ8wDQYJKoZI
hvcNAQEBBQADgY0AMIGJAoGBAMhob5m7/V1IXYBzUMGc6zPhcb4TxMNPuUyat9ym
GvXsaVonqEdWOn2c/ennDd+7H70sktRy/r/PyUojUIlKSVUyhllxEZu1/4wOPIVF
KW7EBGXXefVAHL2mhLee3xMp8olB+eUAELI3wTYlXzl5qtnrWW9aJ2FFcXERuYYf
MMSXAgMBAAGjezB5MAkGA1UdEwQCMAAwLAYJYIZIAYb4QgENBB8WHU9wZW5TU0wg
R2VuZXJhdGVkIENlcnRpZmljYXRlMB0GA1UdDgQWBBQsXVwg1qc/qNTGlWT/th25
9tTCjTAfBgNVHSMEGDAWgBQHiq9EOkt0O0gaBygZ1K4UGIMvOjANBgkqhkiG9w0B
AQUFAAOBgQAMAbDkAnJb05ntQfjnn7NIwc38NMl3U/rEgPGPo31wZ1Qb9xf5OohM
3xYH88V4hJWceAvPkTUx87rlEh1aEUZey/Vur038d1Dt2O3RXBJGUZdqx+CSQ96M
Cooh15uZyHEbWq0ITtlLIcJykIsvJrVn41y4iu51ROubxXpkroPszw==
-----END CERTIFICATE-----
